(dp1
S'output'
p2
S''
sS'layer'
p3
S'Framework'
p4
sS'code'
p5
S''
sS'snapshot'
p6
(dp7
sS'traceback'
p8
S'Traceback (most recent call last):\n  File "/home/rachel/Documents/web2py/gluon/main.py", line 485, in wsgibase\n    serve_controller(request, response, session)\n  File "/home/rachel/Documents/web2py/gluon/main.py", line 208, in serve_controller\n    run_view_in(response._view_environment)\n  File "/home/rachel/Documents/web2py/gluon/compileapp.py", line 489, in run_view_in\n    context=environment)\n  File "/home/rachel/Documents/web2py/gluon/template.py", line 821, in parse_template\n    return str(TemplateParser(text, context=context, path=path, lexers=lexers, delimiters=delimiters))\n  File "/home/rachel/Documents/web2py/gluon/template.py", line 315, in __init__\n    self.parse(text)\n  File "/home/rachel/Documents/web2py/gluon/template.py", line 794, in parse\n    self.extend(extend)\n  File "/home/rachel/Documents/web2py/gluon/template.py", line 480, in extend\n    _super_nodes = super_nodes)\n  File "/home/rachel/Documents/web2py/gluon/template.py", line 315, in __init__\n    self.parse(text)\n  File "/home/rachel/Documents/web2py/gluon/template.py", line 715, in parse\n    self.include(top, value)\n  File "/home/rachel/Documents/web2py/gluon/template.py", line 449, in include\n    text = self._get_file_text(filename)\n  File "/home/rachel/Documents/web2py/gluon/template.py", line 430, in _get_file_text\n    filename = eval(filename, self.context)\n  File "<string>", line 1, in <module>\nNameError: name \'head\' is not defined\n'
p9
s.